; Function Attrs: mustprogress nofree norecurse nosync nounwind willreturn memory(argmem: readwrite) uwtable
define hidden noundef i32 @_ZN4ncnn15GELU_x86_avx51215create_pipelineERKNS_6OptionE(ptr noundef nonnull align 8 captures(none) dereferenceable(212) %0, ptr nonnull readnone align 8 captures(none) %1) unnamed_addr #3 align 2 {
  %3 = getelementptr inbounds nuw i8, ptr %0, i64 208
  %4 = load i32, ptr %3, align 8, !tbaa !4
  %.not = icmp eq i32 %4, 0
  br i1 %.not, label %5, label %7

5:                                                ; preds = %2
  %6 = getelementptr inbounds nuw i8, ptr %0, i64 11
  store i8 0, ptr %6, align 1, !tbaa !26
  br label %7

7:                                                ; preds = %5, %2
  ret i32 0
}